; Function Attrs: nounwind uwtable
define dso_local ptr @PyDescr_NewMethod(ptr noundef %0, ptr noundef %1) local_unnamed_addr #0 {
  %3 = getelementptr inbounds nuw i8, ptr %1, i64 16
  %4 = load i32, ptr %3, align 8, !tbaa !33
  %5 = and i32 %4, 655
  switch i32 %5, label %12 [
    i32 1, label %16
    i32 3, label %6
    i32 128, label %7
    i32 130, label %8
    i32 4, label %9
    i32 8, label %10
    i32 642, label %11
  ]

6:                                                ; preds = %2
  br label %16

7:                                                ; preds = %2
  br label %16

8:                                                ; preds = %2
  br label %16

9:                                                ; preds = %2
  br label %16

10:                                               ; preds = %2
  br label %16

11:                                               ; preds = %2
  br label %16

12:                                               ; preds = %2
  %13 = load ptr, ptr @PyExc_SystemError, align 8, !tbaa !30
  %14 = load ptr, ptr %1, align 8, !tbaa !142
  %15 = tail call ptr (ptr, ptr, ...) @PyErr_Format(ptr noundef %13, ptr noundef nonnull @.str.5, ptr noundef %14) #9
  br label %descr_new.exit.thread

16:                                               ; preds = %2, %11, %10, %9, %8, %7, %6
  %.011 = phi ptr [ @method_vectorcall_FASTCALL_KEYWORDS_METHOD, %11 ], [ @method_vectorcall_O, %10 ], [ @method_vectorcall_NOARGS, %9 ], [ @method_vectorcall_FASTCALL_KEYWORDS, %8 ], [ @method_vectorcall_FASTCALL, %7 ], [ @method_vectorcall_VARARGS_KEYWORDS, %6 ], [ @method_vectorcall_VARARGS, %2 ]
  %17 = load ptr, ptr %1, align 8, !tbaa !142
  %18 = tail call ptr @PyType_GenericAlloc(ptr noundef nonnull @PyMethodDescr_Type, i64 noundef 0) #9
  %.not.i = icmp eq ptr %18, null
  br i1 %.not.i, label %descr_new.exit.thread, label %19

19:                                               ; preds = %16
  tail call void @_PyObject_SetDeferredRefcount(ptr noundef nonnull %18) #9
  %.not.i.i.i = icmp eq ptr %0, null
  br i1 %.not.i.i.i, label %_Py_XNewRef.exit.i, label %20

20:                                               ; preds = %19
  %21 = load i32, ptr %0, align 8, !tbaa !16
  %22 = icmp slt i32 %21, 0
  br i1 %22, label %_Py_XNewRef.exit.i, label %23

23:                                               ; preds = %20
  %24 = add nuw i32 %21, 1
  store i32 %24, ptr %0, align 8, !tbaa !16
  br label %_Py_XNewRef.exit.i

_Py_XNewRef.exit.i:                               ; preds = %23, %20, %19
  %25 = getelementptr inbounds nuw i8, ptr %18, i64 16
  store ptr %0, ptr %25, align 8, !tbaa !10
  %26 = tail call ptr @PyUnicode_InternFromString(ptr noundef %17) #9
  %27 = getelementptr inbounds nuw i8, ptr %18, i64 24
  store ptr %26, ptr %27, align 8, !tbaa !17
  %28 = icmp eq ptr %26, null
  br i1 %28, label %29, label %35

29:                                               ; preds = %_Py_XNewRef.exit.i
  %30 = load i32, ptr %18, align 8, !tbaa !16
  %.not.i.i = icmp sgt i32 %30, -1
  br i1 %.not.i.i, label %31, label %descr_new.exit.thread

31:                                               ; preds = %29
  %32 = add nsw i32 %30, -1
  store i32 %32, ptr %18, align 8, !tbaa !16
  %33 = icmp eq i32 %32, 0
  br i1 %33, label %34, label %descr_new.exit.thread

34:                                               ; preds = %31
  tail call void @_Py_Dealloc(ptr noundef nonnull %18) #9
  br label %descr_new.exit.thread

35:                                               ; preds = %_Py_XNewRef.exit.i
  %36 = getelementptr inbounds nuw i8, ptr %18, i64 32
  store ptr null, ptr %36, align 8, !tbaa !18
  %37 = getelementptr inbounds nuw i8, ptr %18, i64 40
  store ptr %1, ptr %37, align 8, !tbaa !31
  %38 = getelementptr inbounds nuw i8, ptr %18, i64 48
  store ptr %.011, ptr %38, align 8, !tbaa !143
  br label %descr_new.exit.thread

descr_new.exit.thread:                            ; preds = %34, %31, %29, %16, %35, %12
  %.0 = phi ptr [ null, %12 ], [ %18, %35 ], [ null, %16 ], [ null, %29 ], [ null, %31 ], [ null, %34 ]
  ret ptr %.0
}